; Function Attrs: nounwind uwtable
define range(i32 0, 2) i32 @ossl_quic_tx_packetiser_discard_enc_level(ptr noundef writeonly captures(none) %0, i32 noundef %1) local_unnamed_addr #3 {
  %3 = icmp ugt i32 %1, 3
  br i1 %3, label %4, label %5

4:                                                ; preds = %2
  tail call void @ERR_new() #10
  tail call void @ERR_set_debug(ptr noundef nonnull @.str, i32 noundef 734, ptr noundef nonnull @__func__.ossl_quic_tx_packetiser_discard_enc_level) #10
  tail call void (i32, i32, ptr, ...) @ERR_set_error(i32 noundef 20, i32 noundef 524550, ptr noundef null) #10
  br label %9

5:                                                ; preds = %2
  %.not = icmp eq i32 %1, 1
  br i1 %.not, label %9, label %6

6:                                                ; preds = %5
  %7 = getelementptr inbounds nuw i8, ptr %0, i64 288
  %switch.selectcmp.i = icmp eq i32 %1, 2
  %switch.select.i = select i1 %switch.selectcmp.i, i64 1, i64 2
  %switch.selectcmp2.i = icmp eq i32 %1, 0
  %switch.select3.i = select i1 %switch.selectcmp2.i, i64 0, i64 %switch.select.i
  %8 = getelementptr inbounds nuw [3 x ptr], ptr %7, i64 0, i64 %switch.select3.i
  store ptr null, ptr %8, align 8, !tbaa !55
  br label %9

9:                                                ; preds = %5, %6, %4
  %.0 = phi i32 [ 0, %4 ], [ 1, %6 ], [ 1, %5 ]
  ret i32 %.0
}